target datalayout = "e-m:e-p270:32:32-p271:32:32-p272:64:64-i64:64-i128:128-f80:128-n8:16:32:64-S128"
target triple = "x86_64-pc-linux-gnu"

%"class.llvm::StringRef" = type { ptr, i64 }

; Function Attrs: mustprogress nounwind uwtable
define linkonce_odr hidden noundef ptr @_ZN4llvm16cast_convert_valINS_6MDNodeEPNS_8MetadataES3_E4doitEPKS2_(ptr noundef %0) #0 comdat align 2 {
  %2 = alloca ptr, align 8
  store ptr %0, ptr %2, align 8
  %3 = load ptr, ptr %2, align 8
  ret ptr %3
}

; Function Attrs: mustprogress nounwind uwtable
define linkonce_odr hidden noundef ptr @_ZN4llvm8CastInfoINS_6MDNodeEPNS_8MetadataEvE6doCastERKS3_(ptr noundef nonnull align 8 dereferenceable(8) %0) #0 comdat align 2 {
  %2 = alloca ptr, align 8
  store ptr %0, ptr %2, align 8
  %3 = load ptr, ptr %2, align 8
  %4 = load ptr, ptr %3, align 8
  %5 = call noundef ptr @_ZN4llvm16cast_convert_valINS_6MDNodeEPNS_8MetadataES3_E4doitEPKS2_(ptr noundef %4)
  ret ptr %5
}

; Function Attrs: mustprogress nounwind uwtable
define linkonce_odr hidden noundef ptr @_ZN4llvm4castINS_6MDNodeENS_8MetadataEEEDcPT0_(ptr noundef %0) #0 comdat {
  %2 = alloca ptr, align 8
  store ptr %0, ptr %2, align 8
  %3 = call noundef ptr @_ZN4llvm8CastInfoINS_6MDNodeEPNS_8MetadataEvE6doCastERKS3_(ptr noundef nonnull align 8 dereferenceable(8) %2)
  ret ptr %3
}

; Function Attrs: mustprogress nounwind uwtable
define linkonce_odr hidden noundef ptr @_ZN4llvm6unwrapEP18LLVMOpaqueMetadata(ptr noundef %0) #0 comdat {
  %2 = alloca ptr, align 8
  store ptr %0, ptr %2, align 8
  %3 = load ptr, ptr %2, align 8
  ret ptr %3
}

; Function Attrs: mustprogress nounwind uwtable
define linkonce_odr hidden noundef ptr @_ZN4llvm6unwrapINS_6MDNodeEEEPT_P18LLVMOpaqueMetadata(ptr noundef %0) #0 comdat {
  %2 = alloca ptr, align 8
  store ptr %0, ptr %2, align 8
  %3 = load ptr, ptr %2, align 8
  %4 = call noundef ptr @_ZN4llvm6unwrapEP18LLVMOpaqueMetadata(ptr noundef %3)
  %5 = call noundef ptr @_ZN4llvm4castINS_6MDNodeENS_8MetadataEEEDcPT0_(ptr noundef %4)
  ret ptr %5
}

; Function Attrs: mustprogress nounwind uwtable
define linkonce_odr hidden noundef ptr @_ZN4llvm4wrapEPKNS_8MetadataE(ptr noundef %0) #0 comdat {
  %2 = alloca ptr, align 8
  store ptr %0, ptr %2, align 8
  %3 = load ptr, ptr %2, align 8
  ret ptr %3
}

; Function Attrs: mustprogress nounwind uwtable
define linkonce_odr noundef ptr @_Z8unwrapDIIN4llvm6DITypeEEPT_P18LLVMOpaqueMetadata(ptr noundef %0) #0 comdat {
  %2 = alloca ptr, align 8
  store ptr %0, ptr %2, align 8
  %3 = load ptr, ptr %2, align 8
  %4 = icmp ne ptr %3, null
  br i1 %4, label %5, label %8

5:                                                ; preds = %1
  %6 = load ptr, ptr %2, align 8
  %7 = call noundef ptr @_ZN4llvm6unwrapINS_6MDNodeEEEPT_P18LLVMOpaqueMetadata(ptr noundef %6)
  br label %9

8:                                                ; preds = %1
  br label %9

9:                                                ; preds = %8, %5
  %10 = phi ptr [ %7, %5 ], [ null, %8 ]
  ret ptr %10
}

; Function Attrs: mustprogress nounwind uwtable
define linkonce_odr noundef ptr @_Z8unwrapDIIN4llvm6DIFileEEPT_P18LLVMOpaqueMetadata(ptr noundef %0) #0 comdat {
  %2 = alloca ptr, align 8
  store ptr %0, ptr %2, align 8
  %3 = load ptr, ptr %2, align 8
  %4 = icmp ne ptr %3, null
  br i1 %4, label %5, label %8

5:                                                ; preds = %1
  %6 = load ptr, ptr %2, align 8
  %7 = call noundef ptr @_ZN4llvm6unwrapINS_6MDNodeEEEPT_P18LLVMOpaqueMetadata(ptr noundef %6)
  br label %9

8:                                                ; preds = %1
  br label %9

9:                                                ; preds = %8, %5
  %10 = phi ptr [ %7, %5 ], [ null, %8 ]
  ret ptr %10
}

; Function Attrs: mustprogress nounwind uwtable
define linkonce_odr hidden void @_ZN4llvm9StringRefC2EPKcm(ptr noundef nonnull align 8 dereferenceable(16) %0, ptr noundef %1, i64 noundef %2) unnamed_addr #0 comdat align 2 {
  %4 = alloca ptr, align 8
  %5 = alloca ptr, align 8
  %6 = alloca i64, align 8
  store ptr %0, ptr %4, align 8
  store ptr %1, ptr %5, align 8
  store i64 %2, ptr %6, align 8
  %7 = load ptr, ptr %4, align 8
  %8 = getelementptr inbounds nuw %"class.llvm::StringRef", ptr %7, i32 0, i32 0
  %9 = load ptr, ptr %5, align 8
  store ptr %9, ptr %8, align 8
  %10 = getelementptr inbounds nuw %"class.llvm::StringRef", ptr %7, i32 0, i32 1
  %11 = load i64, ptr %6, align 8
  store i64 %11, ptr %10, align 8
  ret void
}

; Function Attrs: mustprogress nounwind uwtable
define linkonce_odr hidden noundef ptr @_ZN4llvm6unwrapEP19LLVMOpaqueDIBuilder(ptr noundef %0) #0 comdat {
  %2 = alloca ptr, align 8
  store ptr %0, ptr %2, align 8
  %3 = load ptr, ptr %2, align 8
  ret ptr %3
}

; Function Attrs: mustprogress nounwind uwtable
define dso_local ptr @LLVMDIBuilderCreateObjCProperty(ptr noundef %0, ptr noundef %1, i64 noundef %2, ptr noundef %3, i32 noundef %4, ptr noundef %5, i64 noundef %6, ptr noundef %7, i64 noundef %8, i32 noundef %9, ptr noundef %10) #0 {
  %12 = alloca ptr, align 8
  %13 = alloca ptr, align 8
  %14 = alloca i64, align 8
  %15 = alloca ptr, align 8
  %16 = alloca i32, align 4
  %17 = alloca ptr, align 8
  %18 = alloca i64, align 8
  %19 = alloca ptr, align 8
  %20 = alloca i64, align 8
  %21 = alloca i32, align 4
  %22 = alloca ptr, align 8
  %23 = alloca %"class.llvm::StringRef", align 8
  %24 = alloca %"class.llvm::StringRef", align 8
  %25 = alloca %"class.llvm::StringRef", align 8
  store ptr %0, ptr %12, align 8
  store ptr %1, ptr %13, align 8
  store i64 %2, ptr %14, align 8
  store ptr %3, ptr %15, align 8
  store i32 %4, ptr %16, align 4
  store ptr %5, ptr %17, align 8
  store i64 %6, ptr %18, align 8
  store ptr %7, ptr %19, align 8
  store i64 %8, ptr %20, align 8
  store i32 %9, ptr %21, align 4
  store ptr %10, ptr %22, align 8
  %26 = load ptr, ptr %12, align 8
  %27 = call noundef ptr @_ZN4llvm6unwrapEP19LLVMOpaqueDIBuilder(ptr noundef %26)
  %28 = load ptr, ptr %13, align 8
  %29 = load i64, ptr %14, align 8
  call void @_ZN4llvm9StringRefC2EPKcm(ptr noundef nonnull align 8 dereferenceable(16) %23, ptr noundef %28, i64 noundef %29)
  %30 = load ptr, ptr %15, align 8
  %31 = call noundef ptr @_Z8unwrapDIIN4llvm6DIFileEEPT_P18LLVMOpaqueMetadata(ptr noundef %30)
  %32 = load i32, ptr %16, align 4
  %33 = load ptr, ptr %17, align 8
  %34 = load i64, ptr %18, align 8
  call void @_ZN4llvm9StringRefC2EPKcm(ptr noundef nonnull align 8 dereferenceable(16) %24, ptr noundef %33, i64 noundef %34)
  %35 = load ptr, ptr %19, align 8
  %36 = load i64, ptr %20, align 8
  call void @_ZN4llvm9StringRefC2EPKcm(ptr noundef nonnull align 8 dereferenceable(16) %25, ptr noundef %35, i64 noundef %36)
  %37 = load i32, ptr %21, align 4
  %38 = load ptr, ptr %22, align 8
  %39 = call noundef ptr @_Z8unwrapDIIN4llvm6DITypeEEPT_P18LLVMOpaqueMetadata(ptr noundef %38)
  %40 = getelementptr inbounds nuw { ptr, i64 }, ptr %23, i32 0, i32 0
  %41 = load ptr, ptr %40, align 8
  %42 = getelementptr inbounds nuw { ptr, i64 }, ptr %23, i32 0, i32 1
  %43 = load i64, ptr %42, align 8
  %44 = call noundef ptr @_ZN4llvm9DIBuilder18createObjCPropertyENS_9StringRefEPNS_6DIFileEjS1_S1_jPNS_6DITypeE(ptr noundef nonnull align 8 dereferenceable(416) %27, ptr %41, i64 %43, ptr noundef %31, i32 noundef %32, ptr noundef byval(%"class.llvm::StringRef") align 8 %24, ptr noundef byval(%"class.llvm::StringRef") align 8 %25, i32 noundef %37, ptr noundef %39)
  %45 = call noundef ptr @_ZN4llvm4wrapEPKNS_8MetadataE(ptr noundef %44)
  ret ptr %45
}