; Function Attrs: mustprogress nounwind uwtable
define dso_local noundef ptr @LLVMDIBuilderCreateObjCProperty(ptr noundef nonnull %0, ptr noundef %1, i64 noundef %2, ptr noundef %3, i32 noundef %4, ptr noundef %5, i64 noundef %6, ptr noundef %7, i64 noundef %8, i32 noundef %9, ptr noundef %10) local_unnamed_addr #0 {
  %12 = alloca %"class.llvm::StringRef", align 8
  %13 = alloca %"class.llvm::StringRef", align 8
  store ptr %5, ptr %12, align 8
  %14 = getelementptr inbounds nuw i8, ptr %12, i64 8
  store i64 %6, ptr %14, align 8
  store ptr %7, ptr %13, align 8
  %15 = getelementptr inbounds nuw i8, ptr %13, i64 8
  store i64 %8, ptr %15, align 8
  %16 = tail call noundef ptr @_ZN4llvm9DIBuilder18createObjCPropertyENS_9StringRefEPNS_6DIFileEjS1_S1_jPNS_6DITypeE(ptr noundef nonnull align 8 dereferenceable(416) %0, ptr %1, i64 %2, ptr noundef %3, i32 noundef %4, ptr noundef nonnull byval(%"class.llvm::StringRef") align 8 %12, ptr noundef nonnull byval(%"class.llvm::StringRef") align 8 %13, i32 noundef %9, ptr noundef %10) #15
  ret ptr %16
}